target datalayout = "e-m:e-p270:32:32-p271:32:32-p272:64:64-i64:64-i128:128-f80:128-n8:16:32:64-S128"
target triple = "x86_64-pc-linux-gnu"

%struct.darktable_t = type { %struct.dt_codepath_t, i32, i32, ptr, ptr, ptr, ptr, ptr, ptr, ptr, ptr, ptr, ptr, ptr, ptr, ptr, ptr, ptr, ptr, ptr, ptr, ptr, ptr, ptr, ptr, ptr, ptr, ptr, ptr, ptr, [64 x %struct.dt_pthread_mutex_t], %struct.dt_pthread_mutex_t, %struct.dt_pthread_mutex_t, %struct.dt_pthread_mutex_t, %struct.dt_pthread_mutex_t, %struct.dt_pthread_mutex_t, ptr, ptr, ptr, ptr, ptr, ptr, ptr, ptr, ptr, ptr, ptr, ptr, ptr, %struct.dt_lua_state_t, ptr, double, ptr, i32, [47 x i32], i32, i32, ptr, ptr, %struct.dt_sys_resources_t, %struct.dt_backthumb_t, %struct.dt_gimp_t }
%struct.dt_codepath_t = type { i8, [3 x i8] }
%struct.dt_pthread_mutex_t = type { %union.pthread_mutex_t }
%union.pthread_mutex_t = type { %struct.__pthread_mutex_s }
%struct.__pthread_mutex_s = type { i32, i32, i32, i32, i32, i16, i16, %struct.__pthread_internal_list }
%struct.__pthread_internal_list = type { ptr, ptr }
%struct.dt_lua_state_t = type { i32 }
%struct.dt_sys_resources_t = type { i64, i64, ptr, ptr, i32 }
%struct.dt_backthumb_t = type { double, double, i32, i32, i32, i32 }
%struct.dt_gimp_t = type { i32, ptr, ptr, i32, i32 }
%struct._GError = type { i32, i32, ptr }

@.str.1 = private unnamed_addr constant [2 x i8] c"/\00", align 1
@darktable = external global %struct.darktable_t, align 8
@.str.23 = private unnamed_addr constant [9 x i8] c":memory:\00", align 1
@.str.118 = private unnamed_addr constant [41 x i8] c"[db backup] checking snapshots existence\00", align 1
@.str.120 = private unnamed_addr constant [30 x i8] c"standard::name,time::modified\00", align 1
@.str.122 = private unnamed_addr constant [8 x i8] c"%s-snp-\00", align 1
@.str.123 = private unnamed_addr constant [8 x i8] c"%s-pre-\00", align 1
@.str.125 = private unnamed_addr constant [15 x i8] c"time::modified\00", align 1
@.str.133 = private unnamed_addr constant [29 x i8] c"[db backup] found file: `%s'\00", align 1
@.str.135 = private unnamed_addr constant [42 x i8] c"[db backup] couldn't get database parent!\00", align 1
@.str.136 = private unnamed_addr constant [51 x i8] c"[db backup] couldn't enumerate database parent: %s\00", align 1
@.str.137 = private unnamed_addr constant [52 x i8] c"[db backup] problem enumerating database parent: %s\00", align 1

; Function Attrs: nounwind uwtable
define ptr @dt_database_get_most_recent_snap(ptr noundef %0) #0 {
  %2 = alloca ptr, align 8
  %3 = alloca ptr, align 8
  %4 = alloca ptr, align 8
  %5 = alloca ptr, align 8
  %6 = alloca i32, align 4
  %7 = alloca ptr, align 8
  %8 = alloca ptr, align 8
  %9 = alloca ptr, align 8
  %10 = alloca ptr, align 8
  %11 = alloca ptr, align 8
  %12 = alloca ptr, align 8
  %13 = alloca i64, align 8
  %14 = alloca ptr, align 8
  %15 = alloca ptr, align 8
  %16 = alloca i64, align 8
  %17 = alloca ptr, align 8
  %18 = alloca ptr, align 8
  store ptr %0, ptr %3, align 8, !tbaa !18
  %19 = load ptr, ptr %3, align 8, !tbaa !18
  %20 = call i32 @g_strcmp0(ptr noundef %19, ptr noundef @.str.23)
  %21 = icmp ne i32 %20, 0
  br i1 %21, label %23, label %22

22:                                               ; preds = %1
  store ptr null, ptr %2, align 8
  br label %195

23:                                               ; preds = %1
  br label %24

24:                                               ; preds = %23
  %25 = load i32, ptr getelementptr inbounds nuw (%struct.darktable_t, ptr @darktable, i32 0, i32 2), align 8, !tbaa !27
  %26 = and i32 256, %25
  %27 = icmp ne i32 %26, 0
  br i1 %27, label %28, label %34

28:                                               ; preds = %24
  %29 = load i32, ptr getelementptr inbounds nuw (%struct.darktable_t, ptr @darktable, i32 0, i32 2), align 8, !tbaa !27
  %30 = xor i32 %29, -1
  %31 = and i32 0, %30
  %32 = icmp ne i32 %31, 0
  br i1 %32, label %34, label %33

33:                                               ; preds = %28
  call void (ptr, ...) @dt_print_ext(ptr noundef @.str.118)
  br label %34

34:                                               ; preds = %33, %28, %24
  br label %35

35:                                               ; preds = %34
  call void @llvm.lifetime.start.p0(i64 8, ptr %4) #13
  %36 = load ptr, ptr %3, align 8, !tbaa !18
  %37 = call ptr @g_file_parse_name(ptr noundef %36)
  store ptr %37, ptr %4, align 8, !tbaa !25
  call void @llvm.lifetime.start.p0(i64 8, ptr %5) #13
  %38 = load ptr, ptr %4, align 8, !tbaa !25
  %39 = call ptr @g_file_get_parent(ptr noundef %38)
  store ptr %39, ptr %5, align 8, !tbaa !25
  %40 = load ptr, ptr %5, align 8, !tbaa !25
  %41 = icmp eq ptr %40, null
  br i1 %41, label %42, label %57

42:                                               ; preds = %35
  br label %43

43:                                               ; preds = %42
  %44 = load i32, ptr getelementptr inbounds nuw (%struct.darktable_t, ptr @darktable, i32 0, i32 2), align 8, !tbaa !27
  %45 = and i32 256, %44
  %46 = icmp ne i32 %45, 0
  br i1 %46, label %47, label %53

47:                                               ; preds = %43
  %48 = load i32, ptr getelementptr inbounds nuw (%struct.darktable_t, ptr @darktable, i32 0, i32 2), align 8, !tbaa !27
  %49 = xor i32 %48, -1
  %50 = and i32 0, %49
  %51 = icmp ne i32 %50, 0
  br i1 %51, label %53, label %52

52:                                               ; preds = %47
  call void (ptr, ...) @dt_print_ext(ptr noundef @.str.135)
  br label %53

53:                                               ; preds = %52, %47, %43
  br label %54

54:                                               ; preds = %53
  br label %55

55:                                               ; preds = %54
  %56 = load ptr, ptr %4, align 8, !tbaa !25
  call void @g_object_unref(ptr noundef %56)
  store ptr null, ptr %2, align 8
  store i32 1, ptr %6, align 4
  br label %194

57:                                               ; preds = %35
  call void @llvm.lifetime.start.p0(i64 8, ptr %7) #13
  store ptr null, ptr %7, align 8, !tbaa !23
  call void @llvm.lifetime.start.p0(i64 8, ptr %8) #13
  %58 = load ptr, ptr %5, align 8, !tbaa !25
  %59 = call ptr @g_file_enumerate_children(ptr noundef %58, ptr noundef @.str.120, i32 noundef 0, ptr noundef null, ptr noundef %7)
  store ptr %59, ptr %8, align 8, !tbaa !73
  %60 = load ptr, ptr %8, align 8, !tbaa !73
  %61 = icmp eq ptr %60, null
  br i1 %61, label %62, label %82

62:                                               ; preds = %57
  br label %63

63:                                               ; preds = %62
  %64 = load i32, ptr getelementptr inbounds nuw (%struct.darktable_t, ptr @darktable, i32 0, i32 2), align 8, !tbaa !27
  %65 = and i32 256, %64
  %66 = icmp ne i32 %65, 0
  br i1 %66, label %67, label %76

67:                                               ; preds = %63
  %68 = load i32, ptr getelementptr inbounds nuw (%struct.darktable_t, ptr @darktable, i32 0, i32 2), align 8, !tbaa !27
  %69 = xor i32 %68, -1
  %70 = and i32 0, %69
  %71 = icmp ne i32 %70, 0
  br i1 %71, label %76, label %72

72:                                               ; preds = %67
  %73 = load ptr, ptr %7, align 8, !tbaa !23
  %74 = getelementptr inbounds nuw %struct._GError, ptr %73, i32 0, i32 2
  %75 = load ptr, ptr %74, align 8, !tbaa !75
  call void (ptr, ...) @dt_print_ext(ptr noundef @.str.136, ptr noundef %75)
  br label %76

76:                                               ; preds = %72, %67, %63
  br label %77

77:                                               ; preds = %76
  br label %78

78:                                               ; preds = %77
  %79 = load ptr, ptr %5, align 8, !tbaa !25
  call void @g_object_unref(ptr noundef %79)
  %80 = load ptr, ptr %4, align 8, !tbaa !25
  call void @g_object_unref(ptr noundef %80)
  %81 = load ptr, ptr %7, align 8, !tbaa !23
  call void @g_error_free(ptr noundef %81)
  store ptr null, ptr %2, align 8
  store i32 1, ptr %6, align 4
  br label %193

82:                                               ; preds = %57
  call void @llvm.lifetime.start.p0(i64 8, ptr %9) #13
  %83 = load ptr, ptr %4, align 8, !tbaa !25
  %84 = call ptr @g_file_get_basename(ptr noundef %83)
  store ptr %84, ptr %9, align 8, !tbaa !18
  %85 = load ptr, ptr %4, align 8, !tbaa !25
  call void @g_object_unref(ptr noundef %85)
  call void @llvm.lifetime.start.p0(i64 8, ptr %10) #13
  %86 = load ptr, ptr %9, align 8, !tbaa !18
  %87 = call noalias ptr (ptr, ...) @g_strdup_printf(ptr noundef @.str.122, ptr noundef %86)
  store ptr %87, ptr %10, align 8, !tbaa !18
  call void @llvm.lifetime.start.p0(i64 8, ptr %11) #13
  %88 = load ptr, ptr %9, align 8, !tbaa !18
  %89 = call noalias ptr (ptr, ...) @g_strdup_printf(ptr noundef @.str.123, ptr noundef %88)
  store ptr %89, ptr %11, align 8, !tbaa !18
  %90 = load ptr, ptr %9, align 8, !tbaa !18
  call void @g_free(ptr noundef %90)
  call void @llvm.lifetime.start.p0(i64 8, ptr %12) #13
  store ptr null, ptr %12, align 8, !tbaa !77
  call void @llvm.lifetime.start.p0(i64 8, ptr %13) #13
  store i64 0, ptr %13, align 8, !tbaa !79
  call void @llvm.lifetime.start.p0(i64 8, ptr %14) #13
  store ptr null, ptr %14, align 8, !tbaa !18
  br label %91

91:                                               ; preds = %146, %144, %82
  %92 = load ptr, ptr %8, align 8, !tbaa !73
  %93 = call ptr @g_file_enumerator_next_file(ptr noundef %92, ptr noundef null, ptr noundef %7)
  store ptr %93, ptr %12, align 8, !tbaa !77
  %94 = icmp ne ptr %93, null
  br i1 %94, label %95, label %147

95:                                               ; preds = %91
  call void @llvm.lifetime.start.p0(i64 8, ptr %15) #13
  %96 = load ptr, ptr %12, align 8, !tbaa !77
  %97 = call ptr @g_file_info_get_name(ptr noundef %96)
  store ptr %97, ptr %15, align 8, !tbaa !18
  %98 = load ptr, ptr %15, align 8, !tbaa !18
  %99 = load ptr, ptr %10, align 8, !tbaa !18
  %100 = call i32 @g_str_has_prefix(ptr noundef %98, ptr noundef %99)
  %101 = icmp ne i32 %100, 0
  br i1 %101, label %107, label %102

102:                                              ; preds = %95
  %103 = load ptr, ptr %15, align 8, !tbaa !18
  %104 = load ptr, ptr %11, align 8, !tbaa !18
  %105 = call i32 @g_str_has_prefix(ptr noundef %103, ptr noundef %104)
  %106 = icmp ne i32 %105, 0
  br i1 %106, label %107, label %142

107:                                              ; preds = %102, %95
  br label %108

108:                                              ; preds = %107
  %109 = load i32, ptr getelementptr inbounds nuw (%struct.darktable_t, ptr @darktable, i32 0, i32 2), align 8, !tbaa !27
  %110 = and i32 256, %109
  %111 = icmp ne i32 %110, 0
  br i1 %111, label %112, label %119

112:                                              ; preds = %108
  %113 = load i32, ptr getelementptr inbounds nuw (%struct.darktable_t, ptr @darktable, i32 0, i32 2), align 8, !tbaa !27
  %114 = xor i32 %113, -1
  %115 = and i32 0, %114
  %116 = icmp ne i32 %115, 0
  br i1 %116, label %119, label %117

117:                                              ; preds = %112
  %118 = load ptr, ptr %15, align 8, !tbaa !18
  call void (ptr, ...) @dt_print_ext(ptr noundef @.str.133, ptr noundef %118)
  br label %119

119:                                              ; preds = %117, %112, %108
  br label %120

120:                                              ; preds = %119
  br label %121

121:                                              ; preds = %120
  %122 = load i64, ptr %13, align 8, !tbaa !79
  %123 = icmp eq i64 %122, 0
  br i1 %123, label %124, label %130

124:                                              ; preds = %121
  %125 = load ptr, ptr %12, align 8, !tbaa !77
  %126 = call i64 @g_file_info_get_attribute_uint64(ptr noundef %125, ptr noundef @.str.125)
  store i64 %126, ptr %13, align 8, !tbaa !79
  %127 = load ptr, ptr %15, align 8, !tbaa !18
  %128 = call noalias ptr @g_strdup(ptr noundef %127)
  store ptr %128, ptr %14, align 8, !tbaa !18
  %129 = load ptr, ptr %12, align 8, !tbaa !77
  call void @g_object_unref(ptr noundef %129)
  store i32 8, ptr %6, align 4
  br label %144

130:                                              ; preds = %121
  call void @llvm.lifetime.start.p0(i64 8, ptr %16) #13
  %131 = load ptr, ptr %12, align 8, !tbaa !77
  %132 = call i64 @g_file_info_get_attribute_uint64(ptr noundef %131, ptr noundef @.str.125)
  store i64 %132, ptr %16, align 8, !tbaa !79
  %133 = load i64, ptr %16, align 8, !tbaa !79
  %134 = load i64, ptr %13, align 8, !tbaa !79
  %135 = icmp ugt i64 %133, %134
  br i1 %135, label %136, label %141

136:                                              ; preds = %130
  %137 = load i64, ptr %16, align 8, !tbaa !79
  store i64 %137, ptr %13, align 8, !tbaa !79
  %138 = load ptr, ptr %14, align 8, !tbaa !18
  call void @g_free(ptr noundef %138)
  %139 = load ptr, ptr %15, align 8, !tbaa !18
  %140 = call noalias ptr @g_strdup(ptr noundef %139)
  store ptr %140, ptr %14, align 8, !tbaa !18
  br label %141

141:                                              ; preds = %136, %130
  call void @llvm.lifetime.end.p0(i64 8, ptr %16) #13
  br label %142

142:                                              ; preds = %141, %102
  %143 = load ptr, ptr %12, align 8, !tbaa !77
  call void @g_object_unref(ptr noundef %143)
  store i32 0, ptr %6, align 4
  br label %144

144:                                              ; preds = %142, %124
  call void @llvm.lifetime.end.p0(i64 8, ptr %15) #13
  %145 = load i32, ptr %6, align 4
  switch i32 %145, label %197 [
    i32 0, label %146
    i32 8, label %91
  ]

146:                                              ; preds = %144
  br label %91

147:                                              ; preds = %91
  %148 = load ptr, ptr %10, align 8, !tbaa !18
  call void @g_free(ptr noundef %148)
  %149 = load ptr, ptr %11, align 8, !tbaa !18
  call void @g_free(ptr noundef %149)
  %150 = load ptr, ptr %7, align 8, !tbaa !23
  %151 = icmp ne ptr %150, null
  br i1 %151, label %152, label %174

152:                                              ; preds = %147
  br label %153

153:                                              ; preds = %152
  %154 = load i32, ptr getelementptr inbounds nuw (%struct.darktable_t, ptr @darktable, i32 0, i32 2), align 8, !tbaa !27
  %155 = and i32 256, %154
  %156 = icmp ne i32 %155, 0
  br i1 %156, label %157, label %166

157:                                              ; preds = %153
  %158 = load i32, ptr getelementptr inbounds nuw (%struct.darktable_t, ptr @darktable, i32 0, i32 2), align 8, !tbaa !27
  %159 = xor i32 %158, -1
  %160 = and i32 0, %159
  %161 = icmp ne i32 %160, 0
  br i1 %161, label %166, label %162

162:                                              ; preds = %157
  %163 = load ptr, ptr %7, align 8, !tbaa !23
  %164 = getelementptr inbounds nuw %struct._GError, ptr %163, i32 0, i32 2
  %165 = load ptr, ptr %164, align 8, !tbaa !75
  call void (ptr, ...) @dt_print_ext(ptr noundef @.str.137, ptr noundef %165)
  br label %166

166:                                              ; preds = %162, %157, %153
  br label %167

167:                                              ; preds = %166
  br label %168

168:                                              ; preds = %167
  %169 = load ptr, ptr %8, align 8, !tbaa !73
  %170 = call i32 @g_file_enumerator_close(ptr noundef %169, ptr noundef null, ptr noundef null)
  %171 = load ptr, ptr %8, align 8, !tbaa !73
  call void @g_object_unref(ptr noundef %171)
  %172 = load ptr, ptr %7, align 8, !tbaa !23
  call void @g_error_free(ptr noundef %172)
  %173 = load ptr, ptr %14, align 8, !tbaa !18
  call void @g_free(ptr noundef %173)
  store ptr null, ptr %2, align 8
  store i32 1, ptr %6, align 4
  br label %192

174:                                              ; preds = %147
  %175 = load ptr, ptr %8, align 8, !tbaa !73
  %176 = call i32 @g_file_enumerator_close(ptr noundef %175, ptr noundef null, ptr noundef null)
  %177 = load ptr, ptr %8, align 8, !tbaa !73
  call void @g_object_unref(ptr noundef %177)
  %178 = load ptr, ptr %14, align 8, !tbaa !18
  %179 = icmp ne ptr %178, null
  br i1 %179, label %182, label %180

180:                                              ; preds = %174
  %181 = load ptr, ptr %5, align 8, !tbaa !25
  call void @g_object_unref(ptr noundef %181)
  store ptr null, ptr %2, align 8
  store i32 1, ptr %6, align 4
  br label %192

182:                                              ; preds = %174
  call void @llvm.lifetime.start.p0(i64 8, ptr %17) #13
  %183 = load ptr, ptr %5, align 8, !tbaa !25
  %184 = call ptr @g_file_get_path(ptr noundef %183)
  store ptr %184, ptr %17, align 8, !tbaa !18
  %185 = load ptr, ptr %5, align 8, !tbaa !25
  call void @g_object_unref(ptr noundef %185)
  call void @llvm.lifetime.start.p0(i64 8, ptr %18) #13
  %186 = load ptr, ptr %17, align 8, !tbaa !18
  %187 = load ptr, ptr %14, align 8, !tbaa !18
  %188 = call noalias ptr (ptr, ...) @g_strconcat(ptr noundef %186, ptr noundef @.str.1, ptr noundef %187, ptr noundef null)
  store ptr %188, ptr %18, align 8, !tbaa !18
  %189 = load ptr, ptr %17, align 8, !tbaa !18
  call void @g_free(ptr noundef %189)
  %190 = load ptr, ptr %14, align 8, !tbaa !18
  call void @g_free(ptr noundef %190)
  %191 = load ptr, ptr %18, align 8, !tbaa !18
  store ptr %191, ptr %2, align 8
  store i32 1, ptr %6, align 4
  call void @llvm.lifetime.end.p0(i64 8, ptr %18) #13
  call void @llvm.lifetime.end.p0(i64 8, ptr %17) #13
  br label %192

192:                                              ; preds = %182, %180, %168
  call void @llvm.lifetime.end.p0(i64 8, ptr %14) #13
  call void @llvm.lifetime.end.p0(i64 8, ptr %13) #13
  call void @llvm.lifetime.end.p0(i64 8, ptr %12) #13
  call void @llvm.lifetime.end.p0(i64 8, ptr %11) #13
  call void @llvm.lifetime.end.p0(i64 8, ptr %10) #13
  call void @llvm.lifetime.end.p0(i64 8, ptr %9) #13
  br label %193

193:                                              ; preds = %192, %78
  call void @llvm.lifetime.end.p0(i64 8, ptr %8) #13
  call void @llvm.lifetime.end.p0(i64 8, ptr %7) #13
  br label %194

194:                                              ; preds = %193, %55
  call void @llvm.lifetime.end.p0(i64 8, ptr %5) #13
  call void @llvm.lifetime.end.p0(i64 8, ptr %4) #13
  br label %195

195:                                              ; preds = %194, %22
  %196 = load ptr, ptr %2, align 8
  ret ptr %196

197:                                              ; preds = %144
  unreachable
}