; Function Attrs: nounwind uwtable
define noalias ptr @dt_database_get_most_recent_snap(ptr noundef %0) local_unnamed_addr #0 {
  %2 = alloca ptr, align 8
  %3 = tail call i32 @g_strcmp0(ptr noundef %0, ptr noundef nonnull @.str.23) #18
  %.not = icmp eq i32 %3, 0
  br i1 %.not, label %69, label %4

4:                                                ; preds = %1
  %5 = load i32, ptr getelementptr inbounds nuw (i8, ptr @darktable, i64 8), align 8, !tbaa !25
  %6 = and i32 %5, 256
  %.not61 = icmp eq i32 %6, 0
  br i1 %.not61, label %8, label %7

7:                                                ; preds = %4
  tail call void (ptr, ...) @dt_print_ext(ptr noundef nonnull @.str.118) #18
  br label %8

8:                                                ; preds = %4, %7
  %9 = tail call ptr @g_file_parse_name(ptr noundef %0) #18
  %10 = tail call ptr @g_file_get_parent(ptr noundef %9) #18
  %11 = icmp eq ptr %10, null
  br i1 %11, label %12, label %17

12:                                               ; preds = %8
  %13 = load i32, ptr getelementptr inbounds nuw (i8, ptr @darktable, i64 8), align 8, !tbaa !25
  %14 = and i32 %13, 256
  %.not70 = icmp eq i32 %14, 0
  br i1 %.not70, label %16, label %15

15:                                               ; preds = %12
  tail call void (ptr, ...) @dt_print_ext(ptr noundef nonnull @.str.135) #18
  br label %16

16:                                               ; preds = %15, %12
  tail call void @g_object_unref(ptr noundef %9) #18
  br label %69

17:                                               ; preds = %8
  call void @llvm.lifetime.start.p0(i64 8, ptr nonnull %2) #18
  store ptr null, ptr %2, align 8, !tbaa !19
  %18 = call ptr @g_file_enumerate_children(ptr noundef nonnull %10, ptr noundef nonnull @.str.120, i32 noundef 0, ptr noundef null, ptr noundef nonnull %2) #18
  %19 = icmp eq ptr %18, null
  br i1 %19, label %20, label %29

20:                                               ; preds = %17
  %21 = load i32, ptr getelementptr inbounds nuw (i8, ptr @darktable, i64 8), align 8, !tbaa !25
  %22 = and i32 %21, 256
  %.not69 = icmp eq i32 %22, 0
  br i1 %.not69, label %27, label %23

23:                                               ; preds = %20
  %24 = load ptr, ptr %2, align 8, !tbaa !19
  %25 = getelementptr inbounds nuw i8, ptr %24, i64 8
  %26 = load ptr, ptr %25, align 8, !tbaa !68
  call void (ptr, ...) @dt_print_ext(ptr noundef nonnull @.str.136, ptr noundef %26) #18
  br label %27

27:                                               ; preds = %23, %20
  call void @g_object_unref(ptr noundef nonnull %10) #18
  call void @g_object_unref(ptr noundef %9) #18
  %28 = load ptr, ptr %2, align 8, !tbaa !19
  call void @g_error_free(ptr noundef %28) #18
  br label %68

29:                                               ; preds = %17
  %30 = call ptr @g_file_get_basename(ptr noundef %9) #18
  call void @g_object_unref(ptr noundef %9) #18
  %31 = call noalias ptr (ptr, ...) @g_strdup_printf(ptr noundef nonnull @.str.122, ptr noundef %30) #18
  %32 = call noalias ptr (ptr, ...) @g_strdup_printf(ptr noundef nonnull @.str.123, ptr noundef %30) #18
  call void @g_free(ptr noundef %30) #18
  %33 = call ptr @g_file_enumerator_next_file(ptr noundef nonnull %18, ptr noundef null, ptr noundef nonnull %2) #18
  %.not6271 = icmp eq ptr %33, null
  br i1 %.not6271, label %._crit_edge, label %.lr.ph

.lr.ph:                                           ; preds = %29, %50
  %34 = phi ptr [ %51, %50 ], [ %33, %29 ]
  %.04873 = phi i64 [ %.250, %50 ], [ 0, %29 ]
  %.05272 = phi ptr [ %.254, %50 ], [ null, %29 ]
  %35 = call ptr @g_file_info_get_name(ptr noundef nonnull %34) #18
  %36 = call i32 @g_str_has_prefix(ptr noundef %35, ptr noundef %31) #18
  %.not66 = icmp eq i32 %36, 0
  br i1 %.not66, label %37, label %39

37:                                               ; preds = %.lr.ph
  %38 = call i32 @g_str_has_prefix(ptr noundef %35, ptr noundef %32) #18
  %.not67 = icmp eq i32 %38, 0
  br i1 %.not67, label %50, label %39

39:                                               ; preds = %.lr.ph, %37
  %40 = load i32, ptr getelementptr inbounds nuw (i8, ptr @darktable, i64 8), align 8, !tbaa !25
  %41 = and i32 %40, 256
  %.not68 = icmp eq i32 %41, 0
  br i1 %.not68, label %43, label %42

42:                                               ; preds = %39
  call void (ptr, ...) @dt_print_ext(ptr noundef nonnull @.str.133, ptr noundef %35) #18
  br label %43

43:                                               ; preds = %42, %39
  %44 = icmp eq i64 %.04873, 0
  %45 = call i64 @g_file_info_get_attribute_uint64(ptr noundef nonnull %34, ptr noundef nonnull @.str.125) #18
  br i1 %44, label %.sink.split, label %46

46:                                               ; preds = %43
  %47 = icmp ugt i64 %45, %.04873
  br i1 %47, label %48, label %50

48:                                               ; preds = %46
  call void @g_free(ptr noundef %.05272) #18
  br label %.sink.split

.sink.split:                                      ; preds = %43, %48
  %49 = call noalias ptr @g_strdup(ptr noundef %35) #18
  br label %50

50:                                               ; preds = %.sink.split, %37, %46
  %.254 = phi ptr [ %.05272, %37 ], [ %.05272, %46 ], [ %49, %.sink.split ]
  %.250 = phi i64 [ %.04873, %37 ], [ %.04873, %46 ], [ %45, %.sink.split ]
  call void @g_object_unref(ptr noundef nonnull %34) #18
  %51 = call ptr @g_file_enumerator_next_file(ptr noundef nonnull %18, ptr noundef null, ptr noundef nonnull %2) #18
  %.not62 = icmp eq ptr %51, null
  br i1 %.not62, label %._crit_edge, label %.lr.ph

._crit_edge:                                      ; preds = %50, %29
  %.052.lcssa = phi ptr [ null, %29 ], [ %.254, %50 ]
  call void @g_free(ptr noundef %31) #18
  call void @g_free(ptr noundef %32) #18
  %52 = load ptr, ptr %2, align 8, !tbaa !19
  %.not63 = icmp eq ptr %52, null
  br i1 %.not63, label %62, label %53

53:                                               ; preds = %._crit_edge
  %54 = load i32, ptr getelementptr inbounds nuw (i8, ptr @darktable, i64 8), align 8, !tbaa !25
  %55 = and i32 %54, 256
  %.not65 = icmp eq i32 %55, 0
  br i1 %.not65, label %59, label %56

56:                                               ; preds = %53
  %57 = getelementptr inbounds nuw i8, ptr %52, i64 8
  %58 = load ptr, ptr %57, align 8, !tbaa !68
  call void (ptr, ...) @dt_print_ext(ptr noundef nonnull @.str.137, ptr noundef %58) #18
  br label %59

59:                                               ; preds = %56, %53
  %60 = call i32 @g_file_enumerator_close(ptr noundef nonnull %18, ptr noundef null, ptr noundef null) #18
  call void @g_object_unref(ptr noundef nonnull %18) #18
  %61 = load ptr, ptr %2, align 8, !tbaa !19
  call void @g_error_free(ptr noundef %61) #18
  call void @g_free(ptr noundef %.052.lcssa) #18
  br label %68

62:                                               ; preds = %._crit_edge
  %63 = call i32 @g_file_enumerator_close(ptr noundef nonnull %18, ptr noundef null, ptr noundef null) #18
  call void @g_object_unref(ptr noundef nonnull %18) #18
  %.not64 = icmp eq ptr %.052.lcssa, null
  br i1 %.not64, label %64, label %65

64:                                               ; preds = %62
  call void @g_object_unref(ptr noundef nonnull %10) #18
  br label %68

65:                                               ; preds = %62
  %66 = call ptr @g_file_get_path(ptr noundef nonnull %10) #18
  call void @g_object_unref(ptr noundef nonnull %10) #18
  %67 = call noalias ptr (ptr, ...) @g_strconcat(ptr noundef %66, ptr noundef nonnull @.str.1, ptr noundef nonnull %.052.lcssa, ptr noundef null) #18
  call void @g_free(ptr noundef %66) #18
  call void @g_free(ptr noundef nonnull %.052.lcssa) #18
  br label %68

68:                                               ; preds = %59, %64, %65, %27
  %.2 = phi ptr [ null, %27 ], [ null, %59 ], [ %67, %65 ], [ null, %64 ]
  call void @llvm.lifetime.end.p0(i64 8, ptr nonnull %2) #18
  br label %69

69:                                               ; preds = %16, %68, %1
  %.0 = phi ptr [ null, %1 ], [ null, %16 ], [ %.2, %68 ]
  ret ptr %.0
}